; Function Attrs: mustprogress null_pointer_is_valid sspstrong uwtable
define void @_ZN15RtpPlayerDialog16sinkStateChangedEv(ptr noundef align 8 dereferenceable_or_null(472) %0) #0 align 2 {
  %2 = getelementptr inbounds nuw i8, ptr %0, i64 320
  %3 = load ptr, ptr %2, align 8
  %4 = tail call noundef i32 @_ZNK10QAudioSink5stateEv(ptr noundef align 8 dereferenceable_or_null(24) %3)
  %5 = icmp eq i32 %4, 0
  %6 = getelementptr inbounds nuw i8, ptr %0, i64 328
  br i1 %5, label %7, label %8

7:                                                ; preds = %1
  tail call void @_ZN6QTimer5startEv(ptr noundef nonnull align 8 dereferenceable_or_null(16) %6)
  br label %9

8:                                                ; preds = %1
  tail call void @_ZN6QTimer4stopEv(ptr noundef nonnull align 8 dereferenceable_or_null(16) %6)
  br label %9

9:                                                ; preds = %8, %7
  ret void
}